target datalayout = "e-m:e-p270:32:32-p271:32:32-p272:64:64-i64:64-i128:128-f80:128-n8:16:32:64-S128"
target triple = "x86_64-pc-linux-gnu"

%struct.strbuf = type { i64, i64, ptr }
%struct.ref_format = type { ptr, ptr, i32, i32, i32, %struct.anon }
%struct.anon = type { i32, i32 }
%struct.used_atom = type { i32, ptr, i32, i32, %union.anon }
%union.anon = type { %struct.anon.1 }
%struct.anon.1 = type { i32, %struct.process_trailer_options, ptr, i32 }
%struct.process_trailer_options = type { i32, i32, i32, i32, i32, i32, i32, i32, ptr, ptr, ptr, ptr }
%struct.anon.2 = type { i32 }

@__const.verify_ref_format.err = private unnamed_addr constant %struct.strbuf { i64 0, i64 0, ptr @strbuf_slopbuf }, align 8
@.str.4 = private unnamed_addr constant [27 x i8] c"malformed format string %s\00", align 1
@.str.5 = private unnamed_addr constant [3 x i8] c"%s\00", align 1
@used_atom = internal global ptr null, align 8
@.str.6 = private unnamed_addr constant [34 x i8] c"this command reject atom %%(%.*s)\00", align 1
@.str.7 = private unnamed_addr constant [59 x i8] c"--format=%.*s cannot be used with --python, --shell, --tcl\00", align 1
@.str.8 = private unnamed_addr constant [7 x i8] c"color:\00", align 1
@.str.9 = private unnamed_addr constant [6 x i8] c"reset\00", align 1

; Function Attrs: inlinehint nounwind uwtable
define internal zeroext i1 @skip_prefix(ptr noundef %0, ptr noundef %1, ptr noundef %2) #1 {
  %4 = alloca i1, align 1
  %5 = alloca ptr, align 8
  %6 = alloca ptr, align 8
  %7 = alloca ptr, align 8
  store ptr %0, ptr %5, align 8, !tbaa !13
  store ptr %1, ptr %6, align 8, !tbaa !13
  store ptr %2, ptr %7, align 8, !tbaa !53
  br label %8

8:                                                ; preds = %16, %3
  %9 = load ptr, ptr %6, align 8, !tbaa !13
  %10 = load i8, ptr %9, align 1, !tbaa !14
  %11 = icmp ne i8 %10, 0
  br i1 %11, label %15, label %12

12:                                               ; preds = %8
  %13 = load ptr, ptr %5, align 8, !tbaa !13
  %14 = load ptr, ptr %7, align 8, !tbaa !53
  store ptr %13, ptr %14, align 8, !tbaa !13
  store i1 true, ptr %4, align 1
  br label %27

15:                                               ; preds = %8
  br label %16

16:                                               ; preds = %15
  %17 = load ptr, ptr %5, align 8, !tbaa !13
  %18 = getelementptr inbounds nuw i8, ptr %17, i32 1
  store ptr %18, ptr %5, align 8, !tbaa !13
  %19 = load i8, ptr %17, align 1, !tbaa !14
  %20 = sext i8 %19 to i32
  %21 = load ptr, ptr %6, align 8, !tbaa !13
  %22 = getelementptr inbounds nuw i8, ptr %21, i32 1
  store ptr %22, ptr %6, align 8, !tbaa !13
  %23 = load i8, ptr %21, align 1, !tbaa !14
  %24 = sext i8 %23 to i32
  %25 = icmp eq i32 %20, %24
  br i1 %25, label %8, label %26, !llvm.loop !55

26:                                               ; preds = %16
  store i1 false, ptr %4, align 1
  br label %27

27:                                               ; preds = %26, %12
  %28 = load i1, ptr %4, align 1
  ret i1 %28
}

; Function Attrs: nounwind uwtable
define internal i32 @reject_atom(i32 noundef %0) #0 {
  %2 = alloca i32, align 4
  store i32 %0, ptr %2, align 4, !tbaa !15
  %3 = load i32, ptr %2, align 4, !tbaa !15
  %4 = icmp eq i32 %3, 44
  %5 = zext i1 %4 to i32
  ret i32 %5
}

; Function Attrs: inlinehint nounwind uwtable
define internal i32 @const_error() #1 {
  ret i32 -1
}

; Function Attrs: nounwind uwtable
define internal ptr @find_next(ptr noundef %0) #0 {
  %2 = alloca ptr, align 8
  %3 = alloca ptr, align 8
  store ptr %0, ptr %3, align 8, !tbaa !13
  br label %4

4:                                                ; preds = %32, %1
  %5 = load ptr, ptr %3, align 8, !tbaa !13
  %6 = load i8, ptr %5, align 1, !tbaa !14
  %7 = icmp ne i8 %6, 0
  br i1 %7, label %8, label %35

8:                                                ; preds = %4
  %9 = load ptr, ptr %3, align 8, !tbaa !13
  %10 = load i8, ptr %9, align 1, !tbaa !14
  %11 = sext i8 %10 to i32
  %12 = icmp eq i32 %11, 37
  br i1 %12, label %13, label %32

13:                                               ; preds = %8
  %14 = load ptr, ptr %3, align 8, !tbaa !13
  %15 = getelementptr inbounds i8, ptr %14, i64 1
  %16 = load i8, ptr %15, align 1, !tbaa !14
  %17 = sext i8 %16 to i32
  %18 = icmp eq i32 %17, 40
  br i1 %18, label %19, label %21

19:                                               ; preds = %13
  %20 = load ptr, ptr %3, align 8, !tbaa !13
  store ptr %20, ptr %2, align 8
  br label %36

21:                                               ; preds = %13
  %22 = load ptr, ptr %3, align 8, !tbaa !13
  %23 = getelementptr inbounds i8, ptr %22, i64 1
  %24 = load i8, ptr %23, align 1, !tbaa !14
  %25 = sext i8 %24 to i32
  %26 = icmp eq i32 %25, 37
  br i1 %26, label %27, label %30

27:                                               ; preds = %21
  %28 = load ptr, ptr %3, align 8, !tbaa !13
  %29 = getelementptr inbounds nuw i8, ptr %28, i32 1
  store ptr %29, ptr %3, align 8, !tbaa !13
  br label %30

30:                                               ; preds = %27, %21
  br label %31

31:                                               ; preds = %30
  br label %32

32:                                               ; preds = %31, %8
  %33 = load ptr, ptr %3, align 8, !tbaa !13
  %34 = getelementptr inbounds nuw i8, ptr %33, i32 1
  store ptr %34, ptr %3, align 8, !tbaa !13
  br label %4, !llvm.loop !35

35:                                               ; preds = %4
  store ptr null, ptr %2, align 8
  br label %36

36:                                               ; preds = %35, %19
  %37 = load ptr, ptr %2, align 8
  ret ptr %37
}

; Function Attrs: nounwind uwtable
define dso_local i32 @verify_ref_format(ptr noundef %0) #0 {
  %2 = alloca i32, align 4
  %3 = alloca ptr, align 8
  %4 = alloca ptr, align 8
  %5 = alloca ptr, align 8
  %6 = alloca %struct.strbuf, align 8
  %7 = alloca ptr, align 8
  %8 = alloca ptr, align 8
  %9 = alloca i32, align 4
  %10 = alloca i32, align 4
  store ptr %0, ptr %3, align 8, !tbaa !17
  call void @llvm.lifetime.start.p0(i64 8, ptr %4) #11
  call void @llvm.lifetime.start.p0(i64 8, ptr %5) #11
  %11 = load ptr, ptr %3, align 8, !tbaa !17
  %12 = getelementptr inbounds nuw %struct.ref_format, ptr %11, i32 0, i32 4
  store i32 0, ptr %12, align 8, !tbaa !19
  %13 = load ptr, ptr %3, align 8, !tbaa !17
  %14 = getelementptr inbounds nuw %struct.ref_format, ptr %13, i32 0, i32 0
  %15 = load ptr, ptr %14, align 8, !tbaa !22
  store ptr %15, ptr %4, align 8, !tbaa !13
  br label %16

16:                                               ; preds = %133, %1
  %17 = load ptr, ptr %4, align 8, !tbaa !13
  %18 = load i8, ptr %17, align 1, !tbaa !14
  %19 = sext i8 %18 to i32
  %20 = icmp ne i32 %19, 0
  br i1 %20, label %21, label %25

21:                                               ; preds = %16
  %22 = load ptr, ptr %4, align 8, !tbaa !13
  %23 = call ptr @find_next(ptr noundef %22)
  store ptr %23, ptr %5, align 8, !tbaa !13
  %24 = icmp ne ptr %23, null
  br label %25

25:                                               ; preds = %21, %16
  %26 = phi i1 [ false, %16 ], [ %24, %21 ]
  br i1 %26, label %27, label %134

27:                                               ; preds = %25
  call void @llvm.lifetime.start.p0(i64 24, ptr %6) #11
  call void @llvm.memcpy.p0.p0.i64(ptr align 8 %6, ptr align 8 @__const.verify_ref_format.err, i64 24, i1 false)
  call void @llvm.lifetime.start.p0(i64 8, ptr %7) #11
  call void @llvm.lifetime.start.p0(i64 8, ptr %8) #11
  %28 = load ptr, ptr %5, align 8, !tbaa !13
  %29 = call ptr @strchr(ptr noundef %28, i32 noundef 41) #12
  store ptr %29, ptr %8, align 8, !tbaa !13
  call void @llvm.lifetime.start.p0(i64 4, ptr %9) #11
  %30 = load ptr, ptr %8, align 8, !tbaa !13
  %31 = icmp ne ptr %30, null
  br i1 %31, label %37, label %32

32:                                               ; preds = %27
  %33 = call ptr @_(ptr noundef @.str.4)
  %34 = load ptr, ptr %5, align 8, !tbaa !13
  %35 = call i32 (ptr, ...) @error(ptr noundef %33, ptr noundef %34)
  %36 = call i32 @const_error()
  store i32 %36, ptr %2, align 4
  store i32 1, ptr %10, align 4
  br label %131

37:                                               ; preds = %27
  %38 = load ptr, ptr %3, align 8, !tbaa !17
  %39 = load ptr, ptr %5, align 8, !tbaa !13
  %40 = getelementptr inbounds i8, ptr %39, i64 2
  %41 = load ptr, ptr %8, align 8, !tbaa !13
  %42 = call i32 @parse_ref_filter_atom(ptr noundef %38, ptr noundef %40, ptr noundef %41, ptr noundef %6)
  store i32 %42, ptr %9, align 4, !tbaa !15
  %43 = load i32, ptr %9, align 4, !tbaa !15
  %44 = icmp slt i32 %43, 0
  br i1 %44, label %45, label %48

45:                                               ; preds = %37
  %46 = getelementptr inbounds nuw %struct.strbuf, ptr %6, i32 0, i32 2
  %47 = load ptr, ptr %46, align 8, !tbaa !23
  call void (ptr, ...) @die(ptr noundef @.str.5, ptr noundef %47) #13
  unreachable

48:                                               ; preds = %37
  %49 = load ptr, ptr @used_atom, align 8, !tbaa !26
  %50 = load i32, ptr %9, align 4, !tbaa !15
  %51 = sext i32 %50 to i64
  %52 = getelementptr inbounds %struct.used_atom, ptr %49, i64 %51
  %53 = getelementptr inbounds nuw %struct.used_atom, ptr %52, i32 0, i32 0
  %54 = load i32, ptr %53, align 8, !tbaa !28
  %55 = call i32 @reject_atom(i32 noundef %54)
  %56 = icmp ne i32 %55, 0
  br i1 %56, label %57, label %68

57:                                               ; preds = %48
  %58 = call ptr @_(ptr noundef @.str.6)
  %59 = load ptr, ptr %8, align 8, !tbaa !13
  %60 = load ptr, ptr %5, align 8, !tbaa !13
  %61 = ptrtoint ptr %59 to i64
  %62 = ptrtoint ptr %60 to i64
  %63 = sub i64 %61, %62
  %64 = sub nsw i64 %63, 2
  %65 = trunc i64 %64 to i32
  %66 = load ptr, ptr %5, align 8, !tbaa !13
  %67 = getelementptr inbounds i8, ptr %66, i64 2
  call void (ptr, ...) @die(ptr noundef %58, i32 noundef %65, ptr noundef %67) #13
  unreachable

68:                                               ; preds = %48
  %69 = load ptr, ptr %3, align 8, !tbaa !17
  %70 = getelementptr inbounds nuw %struct.ref_format, ptr %69, i32 0, i32 2
  %71 = load i32, ptr %70, align 8, !tbaa !30
  %72 = icmp eq i32 %71, 4
  br i1 %72, label %83, label %73

73:                                               ; preds = %68
  %74 = load ptr, ptr %3, align 8, !tbaa !17
  %75 = getelementptr inbounds nuw %struct.ref_format, ptr %74, i32 0, i32 2
  %76 = load i32, ptr %75, align 8, !tbaa !30
  %77 = icmp eq i32 %76, 1
  br i1 %77, label %83, label %78

78:                                               ; preds = %73
  %79 = load ptr, ptr %3, align 8, !tbaa !17
  %80 = getelementptr inbounds nuw %struct.ref_format, ptr %79, i32 0, i32 2
  %81 = load i32, ptr %80, align 8, !tbaa !30
  %82 = icmp eq i32 %81, 8
  br i1 %82, label %83, label %111

83:                                               ; preds = %78, %73, %68
  %84 = load ptr, ptr @used_atom, align 8, !tbaa !26
  %85 = load i32, ptr %9, align 4, !tbaa !15
  %86 = sext i32 %85 to i64
  %87 = getelementptr inbounds %struct.used_atom, ptr %84, i64 %86
  %88 = getelementptr inbounds nuw %struct.used_atom, ptr %87, i32 0, i32 0
  %89 = load i32, ptr %88, align 8, !tbaa !28
  %90 = icmp eq i32 %89, 31
  br i1 %90, label %91, label %111

91:                                               ; preds = %83
  %92 = load ptr, ptr @used_atom, align 8, !tbaa !26
  %93 = load i32, ptr %9, align 4, !tbaa !15
  %94 = sext i32 %93 to i64
  %95 = getelementptr inbounds %struct.used_atom, ptr %92, i64 %94
  %96 = getelementptr inbounds nuw %struct.used_atom, ptr %95, i32 0, i32 4
  %97 = getelementptr inbounds nuw %struct.anon.2, ptr %96, i32 0, i32 0
  %98 = load i32, ptr %97, align 8, !tbaa !14
  %99 = icmp eq i32 %98, 0
  br i1 %99, label %100, label %111

100:                                              ; preds = %91
  %101 = call ptr @_(ptr noundef @.str.7)
  %102 = load ptr, ptr %8, align 8, !tbaa !13
  %103 = load ptr, ptr %5, align 8, !tbaa !13
  %104 = ptrtoint ptr %102 to i64
  %105 = ptrtoint ptr %103 to i64
  %106 = sub i64 %104, %105
  %107 = sub nsw i64 %106, 2
  %108 = trunc i64 %107 to i32
  %109 = load ptr, ptr %5, align 8, !tbaa !13
  %110 = getelementptr inbounds i8, ptr %109, i64 2
  call void (ptr, ...) @die(ptr noundef %101, i32 noundef %108, ptr noundef %110) #13
  unreachable

111:                                              ; preds = %91, %83, %78
  %112 = load ptr, ptr %8, align 8, !tbaa !13
  %113 = getelementptr inbounds i8, ptr %112, i64 1
  store ptr %113, ptr %4, align 8, !tbaa !13
  %114 = load ptr, ptr @used_atom, align 8, !tbaa !26
  %115 = load i32, ptr %9, align 4, !tbaa !15
  %116 = sext i32 %115 to i64
  %117 = getelementptr inbounds %struct.used_atom, ptr %114, i64 %116
  %118 = getelementptr inbounds nuw %struct.used_atom, ptr %117, i32 0, i32 1
  %119 = load ptr, ptr %118, align 8, !tbaa !31
  %120 = call zeroext i1 @skip_prefix(ptr noundef %119, ptr noundef @.str.8, ptr noundef %7)
  br i1 %120, label %121, label %130

121:                                              ; preds = %111
  %122 = load ptr, ptr %7, align 8, !tbaa !13
  %123 = call i32 @strcmp(ptr noundef %122, ptr noundef @.str.9) #12
  %124 = icmp ne i32 %123, 0
  %125 = xor i1 %124, true
  %126 = xor i1 %125, true
  %127 = zext i1 %126 to i32
  %128 = load ptr, ptr %3, align 8, !tbaa !17
  %129 = getelementptr inbounds nuw %struct.ref_format, ptr %128, i32 0, i32 4
  store i32 %127, ptr %129, align 8, !tbaa !19
  br label %130

130:                                              ; preds = %121, %111
  call void @strbuf_release(ptr noundef %6)
  store i32 0, ptr %10, align 4
  br label %131

131:                                              ; preds = %130, %32
  call void @llvm.lifetime.end.p0(i64 4, ptr %9) #11
  call void @llvm.lifetime.end.p0(i64 8, ptr %8) #11
  call void @llvm.lifetime.end.p0(i64 8, ptr %7) #11
  call void @llvm.lifetime.end.p0(i64 24, ptr %6) #11
  %132 = load i32, ptr %10, align 4
  switch i32 %132, label %149 [
    i32 0, label %133
  ]

133:                                              ; preds = %131
  br label %16, !llvm.loop !32

134:                                              ; preds = %25
  %135 = load ptr, ptr %3, align 8, !tbaa !17
  %136 = getelementptr inbounds nuw %struct.ref_format, ptr %135, i32 0, i32 4
  %137 = load i32, ptr %136, align 8, !tbaa !19
  %138 = icmp ne i32 %137, 0
  br i1 %138, label %139, label %148

139:                                              ; preds = %134
  %140 = load ptr, ptr %3, align 8, !tbaa !17
  %141 = getelementptr inbounds nuw %struct.ref_format, ptr %140, i32 0, i32 3
  %142 = load i32, ptr %141, align 4, !tbaa !34
  %143 = call i32 @want_color_fd(i32 noundef 1, i32 noundef %142)
  %144 = icmp ne i32 %143, 0
  br i1 %144, label %148, label %145

145:                                              ; preds = %139
  %146 = load ptr, ptr %3, align 8, !tbaa !17
  %147 = getelementptr inbounds nuw %struct.ref_format, ptr %146, i32 0, i32 4
  store i32 0, ptr %147, align 8, !tbaa !19
  br label %148

148:                                              ; preds = %145, %139, %134
  store i32 0, ptr %2, align 4
  store i32 1, ptr %10, align 4
  br label %149

149:                                              ; preds = %148, %131
  call void @llvm.lifetime.end.p0(i64 8, ptr %5) #11
  call void @llvm.lifetime.end.p0(i64 8, ptr %4) #11
  %150 = load i32, ptr %2, align 4
  ret i32 %150
}