; Function Attrs: nounwind uwtable
define dso_local range(i32 -1, 1) i32 @verify_ref_format(ptr noundef initializes((24, 28)) %0) local_unnamed_addr #0 {
  %2 = alloca %struct.strbuf, align 8
  %3 = getelementptr inbounds nuw i8, ptr %0, i64 24
  store i32 0, ptr %3, align 8, !tbaa !16
  %4 = load ptr, ptr %0, align 8, !tbaa !19
  %5 = load i8, ptr %4, align 1, !tbaa !15
  %.not64 = icmp eq i8 %5, 0
  br i1 %.not64, label %.critedge.thread, label %.preheader.lr.ph

.preheader.lr.ph:                                 ; preds = %1
  %6 = getelementptr inbounds nuw i8, ptr %0, i64 16
  br label %.preheader

.preheader:                                       ; preds = %.preheader.backedge, %.preheader.lr.ph
  %7 = phi i8 [ %5, %.preheader.lr.ph ], [ %.be, %.preheader.backedge ]
  %.0.i = phi ptr [ %4, %.preheader.lr.ph ], [ %.0.i.be, %.preheader.backedge ]
  switch i8 %7, label %12 [
    i8 0, label %.critedge
    i8 37, label %8
  ]

8:                                                ; preds = %.preheader
  %9 = getelementptr inbounds nuw i8, ptr %.0.i, i64 1
  %10 = load i8, ptr %9, align 1, !tbaa !15
  switch i8 %10, label %12 [
    i8 40, label %find_next.exit
    i8 37, label %11
  ]

11:                                               ; preds = %8
  br label %12

12:                                               ; preds = %11, %8, %.preheader
  %.1.i = phi ptr [ %9, %11 ], [ %.0.i, %.preheader ], [ %.0.i, %8 ]
  %13 = getelementptr inbounds nuw i8, ptr %.1.i, i64 1
  %.pr = load i8, ptr %13, align 1, !tbaa !15
  br label %.preheader.backedge

.preheader.backedge:                              ; preds = %12, %.loopexit
  %.be = phi i8 [ %.pr, %12 ], [ %68, %.loopexit ]
  %.0.i.be = phi ptr [ %13, %12 ], [ %55, %.loopexit ]
  br label %.preheader, !llvm.loop !20

find_next.exit:                                   ; preds = %8
  call void @llvm.lifetime.start.p0(i64 24, ptr nonnull %2) #23
  call void @llvm.memcpy.p0.p0.i64(ptr noundef nonnull align 8 dereferenceable(24) %2, ptr noundef nonnull align 8 dereferenceable(24) @__const.parse_sorting_atom.err, i64 24, i1 false)
  %14 = call ptr @strchr(ptr noundef nonnull dereferenceable(1) %.0.i, i32 noundef 41) #24
  %.not40.not = icmp eq ptr %14, null
  br i1 %.not40.not, label %15, label %20

15:                                               ; preds = %find_next.exit
  %16 = load i32, ptr @git_gettext_enabled, align 4, !tbaa !4
  %.not4.i = icmp eq i32 %16, 0
  br i1 %.not4.i, label %.thread, label %17

17:                                               ; preds = %15
  %18 = call ptr @dcgettext(ptr noundef null, ptr noundef nonnull @.str.4, i32 noundef 5) #23
  br label %.thread

.thread:                                          ; preds = %17, %15
  %.0.i42 = phi ptr [ %18, %17 ], [ @.str.4, %15 ]
  %19 = call i32 (ptr, ...) @error(ptr noundef %.0.i42, ptr noundef nonnull %.0.i) #23
  call void @llvm.lifetime.end.p0(i64 24, ptr nonnull %2) #23
  br label %.critedge.thread

20:                                               ; preds = %find_next.exit
  %21 = getelementptr inbounds nuw i8, ptr %.0.i, i64 2
  %22 = call fastcc i32 @parse_ref_filter_atom(ptr noundef nonnull %0, ptr noundef nonnull %21, ptr noundef nonnull %14, ptr noundef nonnull %2)
  %23 = icmp slt i32 %22, 0
  br i1 %23, label %24, label %27

24:                                               ; preds = %20
  %25 = getelementptr inbounds nuw i8, ptr %2, i64 16
  %26 = load ptr, ptr %25, align 8, !tbaa !22
  call void (ptr, ...) @die(ptr noundef nonnull @.str.5, ptr noundef %26) #25
  unreachable

27:                                               ; preds = %20
  %28 = load ptr, ptr @used_atom, align 8, !tbaa !25
  %29 = zext nneg i32 %22 to i64
  %30 = getelementptr inbounds nuw %struct.used_atom, ptr %28, i64 %29
  %31 = load i32, ptr %30, align 8, !tbaa !27
  %.not51 = icmp eq i32 %31, 44
  br i1 %.not51, label %32, label %39

32:                                               ; preds = %27
  %33 = call fastcc ptr @_(ptr noundef nonnull @.str.6)
  %34 = ptrtoint ptr %14 to i64
  %35 = ptrtoint ptr %.0.i to i64
  %36 = sub i64 %34, %35
  %37 = trunc i64 %36 to i32
  %38 = add i32 %37, -2
  call void (ptr, ...) @die(ptr noundef %33, i32 noundef %38, ptr noundef nonnull %21) #25
  unreachable

39:                                               ; preds = %27
  %40 = load i32, ptr %6, align 8, !tbaa !29
  switch i32 %40, label %54 [
    i32 4, label %41
    i32 1, label %41
    i32 8, label %41
  ]

41:                                               ; preds = %39, %39, %39
  %42 = icmp eq i32 %31, 31
  br i1 %42, label %43, label %54

43:                                               ; preds = %41
  %44 = getelementptr inbounds nuw i8, ptr %30, i64 24
  %45 = load i32, ptr %44, align 8, !tbaa !15
  %46 = icmp eq i32 %45, 0
  br i1 %46, label %47, label %54

47:                                               ; preds = %43
  %48 = call fastcc ptr @_(ptr noundef nonnull @.str.7)
  %49 = ptrtoint ptr %14 to i64
  %50 = ptrtoint ptr %.0.i to i64
  %51 = sub i64 %49, %50
  %52 = trunc i64 %51 to i32
  %53 = add i32 %52, -2
  call void (ptr, ...) @die(ptr noundef %48, i32 noundef %53, ptr noundef nonnull %21) #25
  unreachable

54:                                               ; preds = %39, %43, %41
  %55 = getelementptr inbounds nuw i8, ptr %14, i64 1
  %56 = getelementptr inbounds nuw %struct.used_atom, ptr %28, i64 %29, i32 1
  %57 = load ptr, ptr %56, align 8, !tbaa !30
  %scevgep = getelementptr i8, ptr %57, i64 6
  br label %58

58:                                               ; preds = %59, %54
  %.07.i = phi ptr [ %57, %54 ], [ %61, %59 ]
  %.06.i.idx = phi i64 [ 0, %54 ], [ %.06.i.add, %59 ]
  %exitcond = icmp eq i64 %.06.i.idx, 6
  br i1 %exitcond, label %64, label %59

59:                                               ; preds = %58
  %.06.i.ptr = getelementptr inbounds nuw i8, ptr @.str.8, i64 %.06.i.idx
  %60 = load i8, ptr %.06.i.ptr, align 1, !tbaa !15
  %61 = getelementptr inbounds nuw i8, ptr %.07.i, i64 1
  %62 = load i8, ptr %.07.i, align 1, !tbaa !15
  %.06.i.add = add nuw nsw i64 %.06.i.idx, 1
  %63 = icmp eq i8 %62, %60
  br i1 %63, label %58, label %.loopexit, !llvm.loop !31

64:                                               ; preds = %58
  %65 = call i32 @strcmp(ptr noundef nonnull dereferenceable(1) %scevgep, ptr noundef nonnull dereferenceable(6) @.str.9) #24
  %66 = icmp ne i32 %65, 0
  %67 = zext i1 %66 to i32
  store i32 %67, ptr %3, align 8, !tbaa !16
  br label %.loopexit

.loopexit:                                        ; preds = %59, %64
  call void @strbuf_release(ptr noundef nonnull %2) #23
  call void @llvm.lifetime.end.p0(i64 24, ptr nonnull %2) #23
  %68 = load i8, ptr %55, align 1, !tbaa !15
  %.not = icmp eq i8 %68, 0
  br i1 %.not, label %.critedge, label %.preheader.backedge

.critedge:                                        ; preds = %.loopexit, %.preheader
  %.pr81 = load i32, ptr %3, align 8, !tbaa !16
  %.not38 = icmp eq i32 %.pr81, 0
  br i1 %.not38, label %.critedge.thread, label %69

69:                                               ; preds = %.critedge
  %70 = getelementptr inbounds nuw i8, ptr %0, i64 20
  %71 = load i32, ptr %70, align 4, !tbaa !32
  %72 = call i32 @want_color_fd(i32 noundef 1, i32 noundef %71) #23
  %.not39 = icmp eq i32 %72, 0
  br i1 %.not39, label %73, label %.critedge.thread

73:                                               ; preds = %69
  store i32 0, ptr %3, align 8, !tbaa !16
  br label %.critedge.thread

.critedge.thread:                                 ; preds = %1, %.thread, %.critedge, %69, %73
  %.2 = phi i32 [ 0, %73 ], [ 0, %69 ], [ 0, %.critedge ], [ -1, %.thread ], [ 0, %1 ]
  ret i32 %.2
}